target datalayout = "e-m:e-p270:32:32-p271:32:32-p272:64:64-i64:64-i128:128-f80:128-n8:16:32:64-S128"
target triple = "x86_64-pc-linux-gnu"

%"struct.OpenSubdiv::v3_6_0::Osd::BufferDescriptor" = type { i32, i32, i32 }

; Function Attrs: mustprogress uwtable
define noundef zeroext i1 @_ZN10OpenSubdiv6v3_6_03Osd12TbbEvaluator11EvalPatchesEPKfRKNS1_16BufferDescriptorEPfS7_S8_S7_S8_S7_S8_S7_S8_S7_S8_S7_iPKNS1_10PatchCoordEPKNS1_10PatchArrayEPKiPKNS1_10PatchParamE(ptr noundef %0, ptr noundef nonnull align 4 dereferenceable(12) %1, ptr noundef %2, ptr noundef nonnull align 4 dereferenceable(12) %3, ptr noundef %4, ptr noundef nonnull align 4 dereferenceable(12) %5, ptr noundef %6, ptr noundef nonnull align 4 dereferenceable(12) %7, ptr noundef %8, ptr noundef nonnull align 4 dereferenceable(12) %9, ptr noundef %10, ptr noundef nonnull align 4 dereferenceable(12) %11, ptr noundef %12, ptr noundef nonnull align 4 dereferenceable(12) %13, i32 noundef %14, ptr noundef %15, ptr noundef %16, ptr noundef %17, ptr noundef %18) #4 align 2 {
  %20 = alloca i1, align 1
  %21 = alloca ptr, align 8
  %22 = alloca ptr, align 8
  %23 = alloca ptr, align 8
  %24 = alloca ptr, align 8
  %25 = alloca ptr, align 8
  %26 = alloca ptr, align 8
  %27 = alloca ptr, align 8
  %28 = alloca ptr, align 8
  %29 = alloca ptr, align 8
  %30 = alloca ptr, align 8
  %31 = alloca ptr, align 8
  %32 = alloca ptr, align 8
  %33 = alloca ptr, align 8
  %34 = alloca ptr, align 8
  %35 = alloca i32, align 4
  %36 = alloca ptr, align 8
  %37 = alloca ptr, align 8
  %38 = alloca ptr, align 8
  %39 = alloca ptr, align 8
  store ptr %0, ptr %21, align 8
  store ptr %1, ptr %22, align 8
  store ptr %2, ptr %23, align 8
  store ptr %3, ptr %24, align 8
  store ptr %4, ptr %25, align 8
  store ptr %5, ptr %26, align 8
  store ptr %6, ptr %27, align 8
  store ptr %7, ptr %28, align 8
  store ptr %8, ptr %29, align 8
  store ptr %9, ptr %30, align 8
  store ptr %10, ptr %31, align 8
  store ptr %11, ptr %32, align 8
  store ptr %12, ptr %33, align 8
  store ptr %13, ptr %34, align 8
  store i32 %14, ptr %35, align 4
  store ptr %15, ptr %36, align 8
  store ptr %16, ptr %37, align 8
  store ptr %17, ptr %38, align 8
  store ptr %18, ptr %39, align 8
  %40 = load ptr, ptr %22, align 8
  %41 = getelementptr inbounds nuw %"struct.OpenSubdiv::v3_6_0::Osd::BufferDescriptor", ptr %40, i32 0, i32 1
  %42 = load i32, ptr %41, align 4
  %43 = load ptr, ptr %24, align 8
  %44 = getelementptr inbounds nuw %"struct.OpenSubdiv::v3_6_0::Osd::BufferDescriptor", ptr %43, i32 0, i32 1
  %45 = load i32, ptr %44, align 4
  %46 = icmp ne i32 %42, %45
  br i1 %46, label %47, label %48

47:                                               ; preds = %19
  store i1 false, ptr %20, align 1
  br label %68

48:                                               ; preds = %19
  %49 = load ptr, ptr %21, align 8
  %50 = load ptr, ptr %22, align 8
  %51 = load ptr, ptr %23, align 8
  %52 = load ptr, ptr %24, align 8
  %53 = load ptr, ptr %25, align 8
  %54 = load ptr, ptr %26, align 8
  %55 = load ptr, ptr %27, align 8
  %56 = load ptr, ptr %28, align 8
  %57 = load ptr, ptr %29, align 8
  %58 = load ptr, ptr %30, align 8
  %59 = load ptr, ptr %31, align 8
  %60 = load ptr, ptr %32, align 8
  %61 = load ptr, ptr %33, align 8
  %62 = load ptr, ptr %34, align 8
  %63 = load i32, ptr %35, align 4
  %64 = load ptr, ptr %36, align 8
  %65 = load ptr, ptr %37, align 8
  %66 = load ptr, ptr %38, align 8
  %67 = load ptr, ptr %39, align 8
  call void @_ZN10OpenSubdiv6v3_6_03Osd14TbbEvalPatchesEPKfRKNS1_16BufferDescriptorEPfS6_S7_S6_S7_S6_S7_S6_S7_S6_S7_S6_iPKNS1_10PatchCoordEPKNS1_10PatchArrayEPKiPKNS1_10PatchParamE(ptr noundef %49, ptr noundef nonnull align 4 dereferenceable(12) %50, ptr noundef %51, ptr noundef nonnull align 4 dereferenceable(12) %52, ptr noundef %53, ptr noundef nonnull align 4 dereferenceable(12) %54, ptr noundef %55, ptr noundef nonnull align 4 dereferenceable(12) %56, ptr noundef %57, ptr noundef nonnull align 4 dereferenceable(12) %58, ptr noundef %59, ptr noundef nonnull align 4 dereferenceable(12) %60, ptr noundef %61, ptr noundef nonnull align 4 dereferenceable(12) %62, i32 noundef %63, ptr noundef %64, ptr noundef %65, ptr noundef %66, ptr noundef %67)
  store i1 true, ptr %20, align 1
  br label %68

68:                                               ; preds = %48, %47
  %69 = load i1, ptr %20, align 1
  ret i1 %69
}