; Function Attrs: mustprogress uwtable
define noundef zeroext i1 @_ZN10OpenSubdiv6v3_6_03Osd12TbbEvaluator11EvalPatchesEPKfRKNS1_16BufferDescriptorEPfS7_S8_S7_S8_S7_S8_S7_S8_S7_S8_S7_iPKNS1_10PatchCoordEPKNS1_10PatchArrayEPKiPKNS1_10PatchParamE(ptr noundef %0, ptr noundef nonnull align 4 dereferenceable(12) %1, ptr noundef %2, ptr noundef nonnull align 4 dereferenceable(12) %3, ptr noundef %4, ptr noundef nonnull align 4 dereferenceable(12) %5, ptr noundef %6, ptr noundef nonnull align 4 dereferenceable(12) %7, ptr noundef %8, ptr noundef nonnull align 4 dereferenceable(12) %9, ptr noundef %10, ptr noundef nonnull align 4 dereferenceable(12) %11, ptr noundef %12, ptr noundef nonnull align 4 dereferenceable(12) %13, i32 noundef %14, ptr noundef %15, ptr noundef %16, ptr noundef %17, ptr noundef %18) local_unnamed_addr #3 align 2 {
  %20 = getelementptr inbounds nuw i8, ptr %1, i64 4
  %21 = load i32, ptr %20, align 4
  %22 = getelementptr inbounds nuw i8, ptr %3, i64 4
  %23 = load i32, ptr %22, align 4
  %.not = icmp eq i32 %21, %23
  br i1 %.not, label %24, label %25

24:                                               ; preds = %19
  tail call void @_ZN10OpenSubdiv6v3_6_03Osd14TbbEvalPatchesEPKfRKNS1_16BufferDescriptorEPfS6_S7_S6_S7_S6_S7_S6_S7_S6_S7_S6_iPKNS1_10PatchCoordEPKNS1_10PatchArrayEPKiPKNS1_10PatchParamE(ptr noundef %0, ptr noundef nonnull align 4 dereferenceable(12) %1, ptr noundef %2, ptr noundef nonnull align 4 dereferenceable(12) %3, ptr noundef %4, ptr noundef nonnull align 4 dereferenceable(12) %5, ptr noundef %6, ptr noundef nonnull align 4 dereferenceable(12) %7, ptr noundef %8, ptr noundef nonnull align 4 dereferenceable(12) %9, ptr noundef %10, ptr noundef nonnull align 4 dereferenceable(12) %11, ptr noundef %12, ptr noundef nonnull align 4 dereferenceable(12) %13, i32 noundef %14, ptr noundef %15, ptr noundef %16, ptr noundef %17, ptr noundef %18)
  br label %25

25:                                               ; preds = %19, %24
  ret i1 %.not
}